target datalayout = "e-m:e-p270:32:32-p271:32:32-p272:64:64-i64:64-i128:128-f80:128-n8:16:32:64-S128"
target triple = "x86_64-pc-linux-gnu"

%"struct.std::array.69" = type { [3 x i16] }

; Function Attrs: mustprogress nounwind uwtable
define linkonce_odr hidden noundef ptr @_ZNSt14__array_traitsItLm3EE6_S_ptrERA3_Kt(ptr noundef nonnull align 2 dereferenceable(6) %0) #0 comdat align 2 {
  %2 = alloca ptr, align 8
  store ptr %0, ptr %2, align 8
  %3 = load ptr, ptr %2, align 8
  %4 = getelementptr inbounds [3 x i16], ptr %3, i64 0, i64 0
  ret ptr %4
}

; Function Attrs: mustprogress nounwind uwtable
define linkonce_odr hidden noundef ptr @_ZNKSt5arrayItLm3EE4dataEv(ptr noundef nonnull align 2 dereferenceable(6) %0) #0 comdat align 2 {
  %2 = alloca ptr, align 8
  store ptr %0, ptr %2, align 8
  %3 = load ptr, ptr %2, align 8
  %4 = getelementptr inbounds %"struct.std::array.69", ptr %3, i32 0, i32 0
  %5 = call noundef ptr @_ZNSt14__array_traitsItLm3EE6_S_ptrERA3_Kt(ptr noundef nonnull align 2 dereferenceable(6) %4) #8
  ret ptr %5
}

; Function Attrs: mustprogress nounwind uwtable
define linkonce_odr hidden noundef ptr @_ZNKSt5arrayItLm3EE3endEv(ptr noundef nonnull align 2 dereferenceable(6) %0) #0 comdat align 2 {
  %2 = alloca ptr, align 8
  store ptr %0, ptr %2, align 8
  %3 = load ptr, ptr %2, align 8
  %4 = call noundef ptr @_ZNKSt5arrayItLm3EE4dataEv(ptr noundef nonnull align 2 dereferenceable(6) %3) #8
  %5 = getelementptr inbounds i16, ptr %4, i64 3
  ret ptr %5
}

; Function Attrs: mustprogress nounwind uwtable
define linkonce_odr hidden noundef ptr @_ZNKSt5arrayItLm3EE5beginEv(ptr noundef nonnull align 2 dereferenceable(6) %0) #0 comdat align 2 {
  %2 = alloca ptr, align 8
  store ptr %0, ptr %2, align 8
  %3 = load ptr, ptr %2, align 8
  %4 = call noundef ptr @_ZNKSt5arrayItLm3EE4dataEv(ptr noundef nonnull align 2 dereferenceable(6) %3) #8
  ret ptr %4
}

; Function Attrs: mustprogress uwtable
define linkonce_odr hidden noundef nonnull align 8 dereferenceable(64) ptr @_ZN4LIEF4Hash7processIPKtEERS0_T_S5_(ptr noundef nonnull align 8 dereferenceable(64) %0, ptr noundef %1, ptr noundef %2) #3 comdat align 2 {
  %4 = alloca ptr, align 8
  %5 = alloca ptr, align 8
  %6 = alloca ptr, align 8
  %7 = alloca ptr, align 8
  store ptr %0, ptr %4, align 8
  store ptr %1, ptr %5, align 8
  store ptr %2, ptr %6, align 8
  %8 = load ptr, ptr %4, align 8
  store ptr %5, ptr %7, align 8
  br label %9

9:                                                ; preds = %23, %3
  %10 = load ptr, ptr %7, align 8
  %11 = load ptr, ptr %10, align 8
  %12 = load ptr, ptr %6, align 8
  %13 = icmp ne ptr %11, %12
  br i1 %13, label %14, label %27

14:                                               ; preds = %9
  %15 = load ptr, ptr %7, align 8
  %16 = load ptr, ptr %15, align 8
  %17 = load i16, ptr %16, align 2
  %18 = zext i16 %17 to i64
  %19 = load ptr, ptr %8, align 8
  %20 = getelementptr inbounds ptr, ptr %19, i64 166
  %21 = load ptr, ptr %20, align 8
  %22 = call noundef nonnull align 8 dereferenceable(64) ptr %21(ptr noundef nonnull align 8 dereferenceable(64) %8, i64 noundef %18)
  br label %23

23:                                               ; preds = %14
  %24 = load ptr, ptr %7, align 8
  %25 = load ptr, ptr %24, align 8
  %26 = getelementptr inbounds i16, ptr %25, i32 1
  store ptr %26, ptr %24, align 8
  br label %9, !llvm.loop !12

27:                                               ; preds = %9
  ret ptr %8
}

; Function Attrs: mustprogress nounwind uwtable
define linkonce_odr noundef ptr @_ZSt3endISt5arrayItLm3EEEDTcldtfp_3endEERKT_(ptr noundef nonnull align 2 dereferenceable(6) %0) #0 comdat {
  %2 = alloca ptr, align 8
  store ptr %0, ptr %2, align 8
  %3 = load ptr, ptr %2, align 8
  %4 = call noundef ptr @_ZNKSt5arrayItLm3EE3endEv(ptr noundef nonnull align 2 dereferenceable(6) %3) #8
  ret ptr %4
}

; Function Attrs: mustprogress nounwind uwtable
define linkonce_odr noundef ptr @_ZSt5beginISt5arrayItLm3EEEDTcldtfp_5beginEERKT_(ptr noundef nonnull align 2 dereferenceable(6) %0) #0 comdat {
  %2 = alloca ptr, align 8
  store ptr %0, ptr %2, align 8
  %3 = load ptr, ptr %2, align 8
  %4 = call noundef ptr @_ZNKSt5arrayItLm3EE5beginEv(ptr noundef nonnull align 2 dereferenceable(6) %3) #8
  ret ptr %4
}

; Function Attrs: mustprogress uwtable
define linkonce_odr hidden noundef nonnull align 8 dereferenceable(64) ptr @_ZN4LIEF4Hash7processItLm3EEERS0_RKSt5arrayIT_XT0_EE(ptr noundef nonnull align 8 dereferenceable(64) %0, ptr noundef nonnull align 2 dereferenceable(6) %1) #3 comdat align 2 {
  %3 = alloca ptr, align 8
  %4 = alloca ptr, align 8
  store ptr %0, ptr %3, align 8
  store ptr %1, ptr %4, align 8
  %5 = load ptr, ptr %3, align 8
  %6 = load ptr, ptr %4, align 8
  %7 = call noundef ptr @_ZSt5beginISt5arrayItLm3EEEDTcldtfp_5beginEERKT_(ptr noundef nonnull align 2 dereferenceable(6) %6)
  %8 = load ptr, ptr %4, align 8
  %9 = call noundef ptr @_ZSt3endISt5arrayItLm3EEEDTcldtfp_3endEERKT_(ptr noundef nonnull align 2 dereferenceable(6) %8)
  %10 = call noundef nonnull align 8 dereferenceable(64) ptr @_ZN4LIEF4Hash7processIPKtEERS0_T_S5_(ptr noundef nonnull align 8 dereferenceable(64) %5, ptr noundef %7, ptr noundef %9)
  ret ptr %5
}

; Function Attrs: mustprogress nounwind uwtable
define linkonce_odr hidden noundef ptr @_ZNK4LIEF6Object2asINS_5MachO11LoadCommandEEENSt11add_pointerINSt9add_constINSt5decayIT_E4typeEE4typeEE4typeEv(ptr noundef nonnull align 8 dereferenceable(8) %0) #0 comdat align 2 {
  %2 = alloca ptr, align 8
  store ptr %0, ptr %2, align 8
  %3 = load ptr, ptr %2, align 8
  ret ptr %3
}

; Function Attrs: mustprogress uwtable
define void @_ZN4LIEF5MachO4Hash5visitERKNS0_12DylibCommandE(ptr noundef nonnull align 8 dereferenceable(64) %0, ptr noundef nonnull align 8 dereferenceable(100) %1) unnamed_addr #3 align 2 {
  %3 = alloca ptr, align 8
  %4 = alloca ptr, align 8
  %5 = alloca %"struct.std::array.69", align 2
  %6 = alloca i48, align 8
  %7 = alloca %"struct.std::array.69", align 2
  %8 = alloca i48, align 8
  store ptr %0, ptr %3, align 8
  store ptr %1, ptr %4, align 8
  %9 = load ptr, ptr %3, align 8
  %10 = load ptr, ptr %4, align 8
  %11 = call noundef ptr @_ZNK4LIEF6Object2asINS_5MachO11LoadCommandEEENSt11add_pointerINSt9add_constINSt5decayIT_E4typeEE4typeEE4typeEv(ptr noundef nonnull align 8 dereferenceable(8) %10)
  %12 = load ptr, ptr %9, align 8
  %13 = getelementptr inbounds ptr, ptr %12, i64 109
  %14 = load ptr, ptr %13, align 8
  call void %14(ptr noundef nonnull align 8 dereferenceable(64) %9, ptr noundef nonnull align 8 dereferenceable(56) %11)
  %15 = load ptr, ptr %4, align 8
  %16 = call noundef nonnull align 8 dereferenceable(32) ptr @_ZNK4LIEF5MachO12DylibCommand4nameB5cxx11Ev(ptr noundef nonnull align 8 dereferenceable(100) %15)
  %17 = load ptr, ptr %9, align 8
  %18 = getelementptr inbounds ptr, ptr %17, i64 167
  %19 = load ptr, ptr %18, align 8
  %20 = call noundef nonnull align 8 dereferenceable(64) ptr %19(ptr noundef nonnull align 8 dereferenceable(64) %9, ptr noundef nonnull align 8 dereferenceable(32) %16)
  %21 = load ptr, ptr %4, align 8
  %22 = call noundef i32 @_ZNK4LIEF5MachO12DylibCommand9timestampEv(ptr noundef nonnull align 8 dereferenceable(100) %21)
  %23 = zext i32 %22 to i64
  %24 = load ptr, ptr %9, align 8
  %25 = getelementptr inbounds ptr, ptr %24, i64 166
  %26 = load ptr, ptr %25, align 8
  %27 = call noundef nonnull align 8 dereferenceable(64) ptr %26(ptr noundef nonnull align 8 dereferenceable(64) %9, i64 noundef %23)
  %28 = load ptr, ptr %4, align 8
  %29 = call i48 @_ZNK4LIEF5MachO12DylibCommand15current_versionEv(ptr noundef nonnull align 8 dereferenceable(100) %28)
  %30 = getelementptr inbounds %"struct.std::array.69", ptr %5, i32 0, i32 0
  store i48 %29, ptr %6, align 8
  call void @llvm.memcpy.p0.p0.i64(ptr align 2 %30, ptr align 8 %6, i64 6, i1 false)
  %31 = call noundef nonnull align 8 dereferenceable(64) ptr @_ZN4LIEF4Hash7processItLm3EEERS0_RKSt5arrayIT_XT0_EE(ptr noundef nonnull align 8 dereferenceable(64) %9, ptr noundef nonnull align 2 dereferenceable(6) %5)
  %32 = load ptr, ptr %4, align 8
  %33 = call i48 @_ZNK4LIEF5MachO12DylibCommand21compatibility_versionEv(ptr noundef nonnull align 8 dereferenceable(100) %32)
  %34 = getelementptr inbounds %"struct.std::array.69", ptr %7, i32 0, i32 0
  store i48 %33, ptr %8, align 8
  call void @llvm.memcpy.p0.p0.i64(ptr align 2 %34, ptr align 8 %8, i64 6, i1 false)
  %35 = call noundef nonnull align 8 dereferenceable(64) ptr @_ZN4LIEF4Hash7processItLm3EEERS0_RKSt5arrayIT_XT0_EE(ptr noundef nonnull align 8 dereferenceable(64) %9, ptr noundef nonnull align 2 dereferenceable(6) %7)
  ret void
}