; Function Attrs: mustprogress uwtable
define void @_ZN4LIEF5MachO4Hash5visitERKNS0_12DylibCommandE(ptr noundef nonnull align 8 dereferenceable(64) %0, ptr noundef nonnull align 8 dereferenceable(100) %1) unnamed_addr #3 align 2 {
  %3 = alloca %"struct.std::array.69", align 8
  %4 = alloca %"struct.std::array.69", align 8
  %5 = load ptr, ptr %0, align 8
  %6 = getelementptr inbounds i8, ptr %5, i64 872
  %7 = load ptr, ptr %6, align 8
  tail call void %7(ptr noundef nonnull align 8 dereferenceable(64) %0, ptr noundef nonnull align 8 dereferenceable(56) %1)
  %8 = tail call noundef nonnull align 8 dereferenceable(32) ptr @_ZNK4LIEF5MachO12DylibCommand4nameB5cxx11Ev(ptr noundef nonnull align 8 dereferenceable(100) %1)
  %9 = load ptr, ptr %0, align 8
  %10 = getelementptr inbounds i8, ptr %9, i64 1336
  %11 = load ptr, ptr %10, align 8
  %12 = tail call noundef nonnull align 8 dereferenceable(64) ptr %11(ptr noundef nonnull align 8 dereferenceable(64) %0, ptr noundef nonnull align 8 dereferenceable(32) %8)
  %13 = tail call noundef i32 @_ZNK4LIEF5MachO12DylibCommand9timestampEv(ptr noundef nonnull align 8 dereferenceable(100) %1)
  %14 = zext i32 %13 to i64
  %15 = load ptr, ptr %0, align 8
  %16 = getelementptr inbounds i8, ptr %15, i64 1328
  %17 = load ptr, ptr %16, align 8
  %18 = tail call noundef nonnull align 8 dereferenceable(64) ptr %17(ptr noundef nonnull align 8 dereferenceable(64) %0, i64 noundef %14)
  %19 = tail call i48 @_ZNK4LIEF5MachO12DylibCommand15current_versionEv(ptr noundef nonnull align 8 dereferenceable(100) %1)
  store i48 %19, ptr %3, align 8
  br label %.lr.ph.i.i

.lr.ph.i.i:                                       ; preds = %.lr.ph.i.i, %2
  %.08.i.idx.i = phi i64 [ %.08.i.add.i, %.lr.ph.i.i ], [ 0, %2 ]
  %.08.i.ptr.i = getelementptr inbounds i8, ptr %3, i64 %.08.i.idx.i
  %20 = load i16, ptr %.08.i.ptr.i, align 2
  %21 = zext i16 %20 to i64
  %22 = load ptr, ptr %0, align 8
  %23 = getelementptr inbounds i8, ptr %22, i64 1328
  %24 = load ptr, ptr %23, align 8
  %25 = tail call noundef nonnull align 8 dereferenceable(64) ptr %24(ptr noundef nonnull align 8 dereferenceable(64) %0, i64 noundef %21)
  %.08.i.add.i = add nuw nsw i64 %.08.i.idx.i, 2
  %.not.i.i = icmp eq i64 %.08.i.add.i, 6
  br i1 %.not.i.i, label %_ZN4LIEF4Hash7processItLm3EEERS0_RKSt5arrayIT_XT0_EE.exit, label %.lr.ph.i.i, !llvm.loop !50

_ZN4LIEF4Hash7processItLm3EEERS0_RKSt5arrayIT_XT0_EE.exit: ; preds = %.lr.ph.i.i
  %26 = tail call i48 @_ZNK4LIEF5MachO12DylibCommand21compatibility_versionEv(ptr noundef nonnull align 8 dereferenceable(100) %1)
  store i48 %26, ptr %4, align 8
  br label %.lr.ph.i.i7

.lr.ph.i.i7:                                      ; preds = %.lr.ph.i.i7, %_ZN4LIEF4Hash7processItLm3EEERS0_RKSt5arrayIT_XT0_EE.exit
  %.08.i.idx.i8 = phi i64 [ %.08.i.add.i10, %.lr.ph.i.i7 ], [ 0, %_ZN4LIEF4Hash7processItLm3EEERS0_RKSt5arrayIT_XT0_EE.exit ]
  %.08.i.ptr.i9 = getelementptr inbounds i8, ptr %4, i64 %.08.i.idx.i8
  %27 = load i16, ptr %.08.i.ptr.i9, align 2
  %28 = zext i16 %27 to i64
  %29 = load ptr, ptr %0, align 8
  %30 = getelementptr inbounds i8, ptr %29, i64 1328
  %31 = load ptr, ptr %30, align 8
  %32 = tail call noundef nonnull align 8 dereferenceable(64) ptr %31(ptr noundef nonnull align 8 dereferenceable(64) %0, i64 noundef %28)
  %.08.i.add.i10 = add nuw nsw i64 %.08.i.idx.i8, 2
  %.not.i.i11 = icmp eq i64 %.08.i.add.i10, 6
  br i1 %.not.i.i11, label %_ZN4LIEF4Hash7processItLm3EEERS0_RKSt5arrayIT_XT0_EE.exit12, label %.lr.ph.i.i7, !llvm.loop !50

_ZN4LIEF4Hash7processItLm3EEERS0_RKSt5arrayIT_XT0_EE.exit12: ; preds = %.lr.ph.i.i7
  ret void
}